; ModuleID = '16/1461.c'
source_filename = "16/1461.c"
target datalayout = "e-m:e-p270:32:32-p271:32:32-p272:64:64-i64:64-f80:128-n8:16:32:64-S128"
target triple = "x86_64-pc-linux-gnu"

@.str = private unnamed_addr constant [3 x i8] c"%c\00", align 1
@.str.1 = private unnamed_addr constant [5 x i8] c"%c%c\00", align 1
@.str.2 = private unnamed_addr constant [7 x i8] c"%c%c%c\00", align 1
@.str.3 = private unnamed_addr constant [9 x i8] c"%c%c%c%c\00", align 1
@.str.4 = private unnamed_addr constant [6 x i8] c"00001\00", align 1

; Function Attrs: noinline nounwind uwtable
define dso_local i32 @main() #0 {
  %1 = alloca i32, align 4
  %2 = alloca [5 x i32], align 16
  %3 = alloca i32, align 4
  store i32 0, i32* %1, align 4
  store i32 0, i32* %3, align 4
  br label %4

4:                                                ; preds = %11, %0
  %5 = call i32 @getchar()
  %6 = load i32, i32* %3, align 4
  %7 = sext i32 %6 to i64
  %8 = getelementptr inbounds [5 x i32], [5 x i32]* %2, i64 0, i64 %7
  store i32 %5, i32* %8, align 4
  %9 = load i32, i32* %3, align 4
  %10 = add nsw i32 %9, 1
  store i32 %10, i32* %3, align 4
  br label %11

11:                                               ; preds = %4
  %12 = load i32, i32* %3, align 4
  %13 = icmp slt i32 %12, 5
  br i1 %13, label %4, label %14

14:                                               ; preds = %11
  %15 = getelementptr inbounds [5 x i32], [5 x i32]* %2, i64 0, i64 1
  %16 = load i32, i32* %15, align 4
  %17 = icmp eq i32 %16, 10
  br i1 %17, label %18, label %22

18:                                               ; preds = %14
  %19 = getelementptr inbounds [5 x i32], [5 x i32]* %2, i64 0, i64 0
  %20 = load i32, i32* %19, align 16
  %21 = call i32 (i8*, ...) @printf(i8* getelementptr inbounds ([3 x i8], [3 x i8]* @.str, i64 0, i64 0), i32 %20)
  br label %63

22:                                               ; preds = %14
  %23 = getelementptr inbounds [5 x i32], [5 x i32]* %2, i64 0, i64 2
  %24 = load i32, i32* %23, align 8
  %25 = icmp eq i32 %24, 10
  br i1 %25, label %26, label %32

26:                                               ; preds = %22
  %27 = getelementptr inbounds [5 x i32], [5 x i32]* %2, i64 0, i64 1
  %28 = load i32, i32* %27, align 4
  %29 = getelementptr inbounds [5 x i32], [5 x i32]* %2, i64 0, i64 0
  %30 = load i32, i32* %29, align 16
  %31 = call i32 (i8*, ...) @printf(i8* getelementptr inbounds ([5 x i8], [5 x i8]* @.str.1, i64 0, i64 0), i32 %28, i32 %30)
  br label %62

32:                                               ; preds = %22
  %33 = getelementptr inbounds [5 x i32], [5 x i32]* %2, i64 0, i64 3
  %34 = load i32, i32* %33, align 4
  %35 = icmp eq i32 %34, 10
  br i1 %35, label %36, label %44

36:                                               ; preds = %32
  %37 = getelementptr inbounds [5 x i32], [5 x i32]* %2, i64 0, i64 2
  %38 = load i32, i32* %37, align 8
  %39 = getelementptr inbounds [5 x i32], [5 x i32]* %2, i64 0, i64 1
  %40 = load i32, i32* %39, align 4
  %41 = getelementptr inbounds [5 x i32], [5 x i32]* %2, i64 0, i64 0
  %42 = load i32, i32* %41, align 16
  %43 = call i32 (i8*, ...) @printf(i8* getelementptr inbounds ([7 x i8], [7 x i8]* @.str.2, i64 0, i64 0), i32 %38, i32 %40, i32 %42)
  br label %61

44:                                               ; preds = %32
  %45 = getelementptr inbounds [5 x i32], [5 x i32]* %2, i64 0, i64 4
  %46 = load i32, i32* %45, align 16
  %47 = icmp eq i32 %46, 10
  br i1 %47, label %48, label %58

48:                                               ; preds = %44
  %49 = getelementptr inbounds [5 x i32], [5 x i32]* %2, i64 0, i64 3
  %50 = load i32, i32* %49, align 4
  %51 = getelementptr inbounds [5 x i32], [5 x i32]* %2, i64 0, i64 2
  %52 = load i32, i32* %51, align 8
  %53 = getelementptr inbounds [5 x i32], [5 x i32]* %2, i64 0, i64 1
  %54 = load i32, i32* %53, align 4
  %55 = getelementptr inbounds [5 x i32], [5 x i32]* %2, i64 0, i64 0
  %56 = load i32, i32* %55, align 16
  %57 = call i32 (i8*, ...) @printf(i8* getelementptr inbounds ([9 x i8], [9 x i8]* @.str.3, i64 0, i64 0), i32 %50, i32 %52, i32 %54, i32 %56)
  br label %60

58:                                               ; preds = %44
  %59 = call i32 (i8*, ...) @printf(i8* getelementptr inbounds ([6 x i8], [6 x i8]* @.str.4, i64 0, i64 0))
  br label %60

60:                                               ; preds = %58, %48
  br label %61

61:                                               ; preds = %60, %36
  br label %62

62:                                               ; preds = %61, %26
  br label %63

63:                                               ; preds = %62, %18
  ret i32 0
}

declare dso_local i32 @getchar() #1

declare dso_local i32 @printf(i8*, ...) #1


!llvm.module.flags = !{!0}
!llvm.ident = !{!1}

!0 = !{i32 1, !"wchar_size", i32 4}
!1 = !{!"clang version 10.0.0-4ubuntu1 "}
